; Function Attrs: mustprogress sspstrong uwtable
define noundef zeroext i1 @_ZN3tbb6detail2r18finalizeERNS0_2d121task_scheduler_handleEl(ptr noundef nonnull align 8 captures(none) dereferenceable(8) %0, i64 noundef %1) local_unnamed_addr #1 personality ptr @__gxx_personality_v0 {
  %3 = icmp eq i64 %1, 0
  br i1 %3, label %4, label %11

4:                                                ; preds = %2
  %5 = load ptr, ptr %0, align 8, !tbaa !132
  %.not.i = icmp eq ptr %5, null
  br i1 %.not.i, label %_ZN3tbb6detail2r112release_implERNS0_2d121task_scheduler_handleE.exit, label %6

6:                                                ; preds = %4
  invoke void @_ZN3tbb6detail2r17destroyERNS0_2d114global_controlE(ptr noundef nonnull align 8 dereferenceable(20) %5)
          to label %_ZN3tbb6detail2d114global_controlD2Ev.exit.i unwind label %7

7:                                                ; preds = %6
  %8 = landingpad { ptr, i32 }
          catch ptr null
  %9 = extractvalue { ptr, i32 } %8, 0
  tail call void @__clang_call_terminate(ptr %9) #15
  unreachable

_ZN3tbb6detail2d114global_controlD2Ev.exit.i:     ; preds = %6
  %10 = load ptr, ptr %0, align 8, !tbaa !132
  tail call void @_ZN3tbb6detail2r117deallocate_memoryEPv(ptr noundef %10)
  store ptr null, ptr %0, align 8, !tbaa !132
  br label %_ZN3tbb6detail2r112release_implERNS0_2d121task_scheduler_handleE.exit

11:                                               ; preds = %2
  %12 = tail call noundef zeroext i1 @_ZN3tbb6detail2r113finalize_implERNS0_2d121task_scheduler_handleE(ptr noundef nonnull align 8 dereferenceable(8) %0)
  %13 = load ptr, ptr %0, align 8, !tbaa !132
  %.not.i8 = icmp eq ptr %13, null
  br i1 %.not.i8, label %_ZN3tbb6detail2r112release_implERNS0_2d121task_scheduler_handleE.exit10, label %14

14:                                               ; preds = %11
  invoke void @_ZN3tbb6detail2r17destroyERNS0_2d114global_controlE(ptr noundef nonnull align 8 dereferenceable(20) %13)
          to label %_ZN3tbb6detail2d114global_controlD2Ev.exit.i9 unwind label %15

15:                                               ; preds = %14
  %16 = landingpad { ptr, i32 }
          catch ptr null
  %17 = extractvalue { ptr, i32 } %16, 0
  tail call void @__clang_call_terminate(ptr %17) #15
  unreachable

_ZN3tbb6detail2d114global_controlD2Ev.exit.i9:    ; preds = %14
  %18 = load ptr, ptr %0, align 8, !tbaa !132
  tail call void @_ZN3tbb6detail2r117deallocate_memoryEPv(ptr noundef %18)
  store ptr null, ptr %0, align 8, !tbaa !132
  br label %_ZN3tbb6detail2r112release_implERNS0_2d121task_scheduler_handleE.exit10

_ZN3tbb6detail2r112release_implERNS0_2d121task_scheduler_handleE.exit10: ; preds = %11, %_ZN3tbb6detail2d114global_controlD2Ev.exit.i9
  %19 = icmp ne i64 %1, 2
  %brmerge = or i1 %19, %12
  br i1 %brmerge, label %_ZN3tbb6detail2r112release_implERNS0_2d121task_scheduler_handleE.exit, label %20

20:                                               ; preds = %_ZN3tbb6detail2r112release_implERNS0_2d121task_scheduler_handleE.exit10
  tail call void @_ZN3tbb6detail2r115throw_exceptionENS0_2d012exception_idE(i32 noundef 11)
  br label %_ZN3tbb6detail2r112release_implERNS0_2d121task_scheduler_handleE.exit

_ZN3tbb6detail2r112release_implERNS0_2d121task_scheduler_handleE.exit: ; preds = %_ZN3tbb6detail2d114global_controlD2Ev.exit.i, %4, %20, %_ZN3tbb6detail2r112release_implERNS0_2d121task_scheduler_handleE.exit10
  %.0 = phi i1 [ %12, %_ZN3tbb6detail2r112release_implERNS0_2d121task_scheduler_handleE.exit10 ], [ false, %20 ], [ true, %4 ], [ true, %_ZN3tbb6detail2d114global_controlD2Ev.exit.i ]
  ret i1 %.0
}